target datalayout = "e-m:e-p270:32:32-p271:32:32-p272:64:64-i64:64-i128:128-f80:128-n8:16:32:64-S128"
target triple = "x86_64-pc-linux-gnu"

%"struct.nanobind::dlpack::dtype" = type { i8, i8, i16 }
%"struct.nanobind::detail::managed_dltensor" = type { %"struct.nanobind::dlpack::dltensor", ptr, ptr }
%"struct.nanobind::dlpack::dltensor" = type { ptr, %"struct.nanobind::dlpack::device", i32, %"struct.nanobind::dlpack::dtype", ptr, ptr, i64 }
%"struct.nanobind::dlpack::device" = type { i32, i32 }
%"struct.nanobind::gil_scoped_acquire" = type { i32 }
%class.anon = type { i8 }

; Function Attrs: mustprogress nounwind uwtable
define linkonce_odr hidden void @_ZN8nanobind18gil_scoped_acquireD2Ev(ptr noundef nonnull align 4 dereferenceable(4) %0) unnamed_addr #0 comdat align 2 personality ptr @__gxx_personality_v0 {
  %2 = alloca ptr, align 8
  store ptr %0, ptr %2, align 8
  %3 = load ptr, ptr %2, align 8
  %4 = getelementptr inbounds nuw %"struct.nanobind::gil_scoped_acquire", ptr %3, i32 0, i32 0
  %5 = load i32, ptr %4, align 4
  invoke void @PyGILState_Release(i32 noundef %5)
          to label %6 unwind label %7

6:                                                ; preds = %1
  ret void

7:                                                ; preds = %1
  %8 = landingpad { ptr, i32 }
          catch ptr null
  %9 = extractvalue { ptr, i32 } %8, 0
  call void @__clang_call_terminate(ptr %9) #18
  unreachable
}

; Function Attrs: mustprogress nounwind uwtable
define linkonce_odr hidden void @_ZN8nanobind18gil_scoped_acquireC2Ev(ptr noundef nonnull align 4 dereferenceable(4) %0) unnamed_addr #0 comdat align 2 personality ptr @__gxx_personality_v0 {
  %2 = alloca ptr, align 8
  store ptr %0, ptr %2, align 8
  %3 = load ptr, ptr %2, align 8
  %4 = getelementptr inbounds nuw %"struct.nanobind::gil_scoped_acquire", ptr %3, i32 0, i32 0
  %5 = invoke i32 @PyGILState_Ensure()
          to label %6 unwind label %7

6:                                                ; preds = %1
  store i32 %5, ptr %4, align 4
  ret void

7:                                                ; preds = %1
  %8 = landingpad { ptr, i32 }
          catch ptr null
  %9 = extractvalue { ptr, i32 } %8, 0
  call void @__clang_call_terminate(ptr %9) #18
  unreachable
}

; Function Attrs: inlinehint mustprogress nounwind uwtable
define internal void @"_ZZN8nanobind6detail14ndarray_createEPvmPKmP7_objectPKlNS_6dlpack5dtypeEbiicENK3$_0clEPNS0_16managed_dltensorE"(ptr noundef nonnull align 1 dereferenceable(1) %0, ptr noundef %1) #9 align 2 {
  %3 = alloca ptr, align 8
  %4 = alloca ptr, align 8
  %5 = alloca %"struct.nanobind::gil_scoped_acquire", align 4
  %6 = alloca ptr, align 8
  store ptr %0, ptr %3, align 8
  store ptr %1, ptr %4, align 8
  call void @llvm.lifetime.start.p0(i64 4, ptr %5) #17
  call void @_ZN8nanobind18gil_scoped_acquireC2Ev(ptr noundef nonnull align 4 dereferenceable(4) %5) #17
  call void @llvm.lifetime.start.p0(i64 8, ptr %6) #17
  %7 = load ptr, ptr %4, align 8
  %8 = getelementptr inbounds nuw %"struct.nanobind::detail::managed_dltensor", ptr %7, i32 0, i32 1
  %9 = load ptr, ptr %8, align 8
  store ptr %9, ptr %6, align 8
  %10 = load ptr, ptr %6, align 8
  call void @_ZN8nanobind6detail15ndarray_dec_refEPNS0_14ndarray_handleE(ptr noundef %10) #17
  call void @llvm.lifetime.end.p0(i64 8, ptr %6) #17
  call void @_ZN8nanobind18gil_scoped_acquireD2Ev(ptr noundef nonnull align 4 dereferenceable(4) %5) #17
  call void @llvm.lifetime.end.p0(i64 4, ptr %5) #17
  ret void
}

; Function Attrs: inlinehint mustprogress uwtable
define internal void @"_ZZN8nanobind6detail14ndarray_createEPvmPKmP7_objectPKlNS_6dlpack5dtypeEbiicEN3$_08__invokeEPNS0_16managed_dltensorE"(ptr noundef %0) #8 align 2 {
  %2 = alloca ptr, align 8
  %3 = alloca %class.anon, align 1
  store ptr %0, ptr %2, align 8
  %4 = load ptr, ptr %2, align 8
  call void @"_ZZN8nanobind6detail14ndarray_createEPvmPKmP7_objectPKlNS_6dlpack5dtypeEbiicENK3$_0clEPNS0_16managed_dltensorE"(ptr noundef nonnull align 1 dereferenceable(1) %3, ptr noundef %4)
  ret void
}