; Function Attrs: inlinehint mustprogress nounwind uwtable
define internal void @"_ZZN8nanobind6detail14ndarray_createEPvmPKmP7_objectPKlNS_6dlpack5dtypeEbiicEN3$_08__invokeEPNS0_16managed_dltensorE"(ptr noundef readonly captures(none) %0) #12 align 2 personality ptr @__gxx_personality_v0 {
  %2 = invoke i32 @PyGILState_Ensure()
          to label %_ZN8nanobind18gil_scoped_acquireC2Ev.exit.i unwind label %3

3:                                                ; preds = %1
  %4 = landingpad { ptr, i32 }
          catch ptr null
  %5 = extractvalue { ptr, i32 } %4, 0
  tail call void @__clang_call_terminate(ptr %5) #20
  unreachable

_ZN8nanobind18gil_scoped_acquireC2Ev.exit.i:      ; preds = %1
  %6 = getelementptr inbounds nuw i8, ptr %0, i64 48
  %7 = load ptr, ptr %6, align 8
  tail call void @_ZN8nanobind6detail15ndarray_dec_refEPNS0_14ndarray_handleE(ptr noundef %7) #19
  invoke void @PyGILState_Release(i32 noundef %2)
          to label %"_ZZN8nanobind6detail14ndarray_createEPvmPKmP7_objectPKlNS_6dlpack5dtypeEbiicENK3$_0clEPNS0_16managed_dltensorE.exit" unwind label %8

8:                                                ; preds = %_ZN8nanobind18gil_scoped_acquireC2Ev.exit.i
  %9 = landingpad { ptr, i32 }
          catch ptr null
  %10 = extractvalue { ptr, i32 } %9, 0
  tail call void @__clang_call_terminate(ptr %10) #20
  unreachable

"_ZZN8nanobind6detail14ndarray_createEPvmPKmP7_objectPKlNS_6dlpack5dtypeEbiicENK3$_0clEPNS0_16managed_dltensorE.exit": ; preds = %_ZN8nanobind18gil_scoped_acquireC2Ev.exit.i
  ret void
}